target datalayout = "e-m:e-p270:32:32-p271:32:32-p272:64:64-i64:64-i128:128-f80:128-n8:16:32:64-S128"
target triple = "x86_64-pc-linux-gnu"

%struct.AVFilterContext = type { ptr, ptr, ptr, ptr, ptr, i32, ptr, ptr, i32, ptr, ptr, i32, i32, ptr, ptr, ptr, ptr, i32, ptr, i32, i32 }
%struct.ShufflePlanesContext = type { ptr, i32, [4 x i32], i32 }
%struct.AVFilterLink = type { ptr, ptr, ptr, ptr, i32, i32, i32, i32, %struct.AVRational, i32, i32, i32, %struct.AVChannelLayout, %struct.AVRational, ptr, i32, %struct.AVFilterFormatsConfig, %struct.AVFilterFormatsConfig }
%struct.AVChannelLayout = type { i32, i32, %union.anon.1, ptr }
%union.anon.1 = type { i64 }
%struct.AVRational = type { i32, i32 }
%struct.AVFilterFormatsConfig = type { ptr, ptr, ptr, ptr, ptr }

; Function Attrs: cold nounwind optsize uwtable
define internal i32 @shuffleplanes_config_input(ptr noundef %0) #1 {
  %2 = alloca ptr, align 8
  %3 = alloca ptr, align 8
  %4 = alloca ptr, align 8
  %5 = alloca [4 x i32], align 16
  %6 = alloca i32, align 4
  store ptr %0, ptr %2, align 8, !tbaa !39
  call void @llvm.lifetime.start.p0(i64 8, ptr %3) #6
  %7 = load ptr, ptr %2, align 8, !tbaa !39
  %8 = getelementptr inbounds nuw %struct.AVFilterLink, ptr %7, i32 0, i32 2
  %9 = load ptr, ptr %8, align 8, !tbaa !43
  store ptr %9, ptr %3, align 8, !tbaa !4
  call void @llvm.lifetime.start.p0(i64 8, ptr %4) #6
  %10 = load ptr, ptr %3, align 8, !tbaa !4
  %11 = getelementptr inbounds nuw %struct.AVFilterContext, ptr %10, i32 0, i32 9
  %12 = load ptr, ptr %11, align 8, !tbaa !14
  store ptr %12, ptr %4, align 8, !tbaa !26
  call void @llvm.lifetime.start.p0(i64 16, ptr %5) #6
  call void @llvm.memset.p0.i64(ptr align 16 %5, i8 0, i64 16, i1 false)
  call void @llvm.lifetime.start.p0(i64 4, ptr %6) #6
  %13 = load ptr, ptr %4, align 8, !tbaa !26
  %14 = getelementptr inbounds nuw %struct.ShufflePlanesContext, ptr %13, i32 0, i32 3
  store i32 0, ptr %14, align 4, !tbaa !54
  %15 = load ptr, ptr %2, align 8, !tbaa !39
  %16 = getelementptr inbounds nuw %struct.AVFilterLink, ptr %15, i32 0, i32 5
  %17 = load i32, ptr %16, align 4, !tbaa !62
  %18 = call i32 @av_pix_fmt_count_planes(i32 noundef %17)
  %19 = load ptr, ptr %4, align 8, !tbaa !26
  %20 = getelementptr inbounds nuw %struct.ShufflePlanesContext, ptr %19, i32 0, i32 1
  store i32 %18, ptr %20, align 8, !tbaa !50
  store i32 0, ptr %6, align 4, !tbaa !28
  br label %21

21:                                               ; preds = %52, %1
  %22 = load i32, ptr %6, align 4, !tbaa !28
  %23 = load ptr, ptr %4, align 8, !tbaa !26
  %24 = getelementptr inbounds nuw %struct.ShufflePlanesContext, ptr %23, i32 0, i32 1
  %25 = load i32, ptr %24, align 8, !tbaa !50
  %26 = icmp slt i32 %22, %25
  br i1 %26, label %27, label %55

27:                                               ; preds = %21
  %28 = load ptr, ptr %4, align 8, !tbaa !26
  %29 = getelementptr inbounds nuw %struct.ShufflePlanesContext, ptr %28, i32 0, i32 2
  %30 = load i32, ptr %6, align 4, !tbaa !28
  %31 = sext i32 %30 to i64
  %32 = getelementptr inbounds [4 x i32], ptr %29, i64 0, i64 %31
  %33 = load i32, ptr %32, align 4, !tbaa !28
  %34 = sext i32 %33 to i64
  %35 = getelementptr inbounds [4 x i32], ptr %5, i64 0, i64 %34
  %36 = load i32, ptr %35, align 4, !tbaa !28
  %37 = icmp ne i32 %36, 0
  br i1 %37, label %38, label %41

38:                                               ; preds = %27
  %39 = load ptr, ptr %4, align 8, !tbaa !26
  %40 = getelementptr inbounds nuw %struct.ShufflePlanesContext, ptr %39, i32 0, i32 3
  store i32 1, ptr %40, align 4, !tbaa !54
  br label %41

41:                                               ; preds = %38, %27
  %42 = load ptr, ptr %4, align 8, !tbaa !26
  %43 = getelementptr inbounds nuw %struct.ShufflePlanesContext, ptr %42, i32 0, i32 2
  %44 = load i32, ptr %6, align 4, !tbaa !28
  %45 = sext i32 %44 to i64
  %46 = getelementptr inbounds [4 x i32], ptr %43, i64 0, i64 %45
  %47 = load i32, ptr %46, align 4, !tbaa !28
  %48 = sext i32 %47 to i64
  %49 = getelementptr inbounds [4 x i32], ptr %5, i64 0, i64 %48
  %50 = load i32, ptr %49, align 4, !tbaa !28
  %51 = add nsw i32 %50, 1
  store i32 %51, ptr %49, align 4, !tbaa !28
  br label %52

52:                                               ; preds = %41
  %53 = load i32, ptr %6, align 4, !tbaa !28
  %54 = add nsw i32 %53, 1
  store i32 %54, ptr %6, align 4, !tbaa !28
  br label %21, !llvm.loop !63

55:                                               ; preds = %21
  call void @llvm.lifetime.end.p0(i64 4, ptr %6) #6
  call void @llvm.lifetime.end.p0(i64 16, ptr %5) #6
  call void @llvm.lifetime.end.p0(i64 8, ptr %4) #6
  call void @llvm.lifetime.end.p0(i64 8, ptr %3) #6
  ret i32 0
}