; Function Attrs: cold nounwind optsize uwtable
define internal noundef i32 @shuffleplanes_config_input(ptr noundef readonly captures(none) %0) #1 {
  %2 = alloca [4 x i32], align 16
  %3 = getelementptr inbounds nuw i8, ptr %0, i64 16
  %4 = load ptr, ptr %3, align 8, !tbaa !33
  %5 = getelementptr inbounds nuw i8, ptr %4, i64 72
  %6 = load ptr, ptr %5, align 8, !tbaa !9
  call void @llvm.lifetime.start.p0(i64 16, ptr nonnull %2) #6
  call void @llvm.memset.p0.i64(ptr noundef nonnull align 16 dereferenceable(16) %2, i8 0, i64 16, i1 false)
  %7 = getelementptr inbounds nuw i8, ptr %6, i64 28
  store i32 0, ptr %7, align 4, !tbaa !45
  %8 = getelementptr inbounds nuw i8, ptr %0, i64 36
  %9 = load i32, ptr %8, align 4, !tbaa !55
  %10 = tail call i32 @av_pix_fmt_count_planes(i32 noundef %9) #6
  %11 = getelementptr inbounds nuw i8, ptr %6, i64 8
  store i32 %10, ptr %11, align 8, !tbaa !41
  %12 = icmp sgt i32 %10, 0
  br i1 %12, label %.lr.ph, label %._crit_edge

.lr.ph:                                           ; preds = %1
  %13 = getelementptr inbounds nuw i8, ptr %6, i64 12
  %wide.trip.count = zext nneg i32 %10 to i64
  br label %14

14:                                               ; preds = %.lr.ph, %22
  %indvars.iv = phi i64 [ 0, %.lr.ph ], [ %indvars.iv.next, %22 ]
  %15 = getelementptr inbounds nuw [4 x i32], ptr %13, i64 0, i64 %indvars.iv
  %16 = load i32, ptr %15, align 4, !tbaa !25
  %17 = sext i32 %16 to i64
  %18 = getelementptr inbounds [4 x i32], ptr %2, i64 0, i64 %17
  %19 = load i32, ptr %18, align 4, !tbaa !25
  %.not = icmp eq i32 %19, 0
  br i1 %.not, label %22, label %20

20:                                               ; preds = %14
  store i32 1, ptr %7, align 4, !tbaa !45
  %.pre = load i32, ptr %15, align 4, !tbaa !25
  %.phi.trans.insert = sext i32 %.pre to i64
  %.phi.trans.insert14 = getelementptr inbounds [4 x i32], ptr %2, i64 0, i64 %.phi.trans.insert
  %.pre15 = load i32, ptr %.phi.trans.insert14, align 4, !tbaa !25
  %21 = add nsw i32 %.pre15, 1
  br label %22

22:                                               ; preds = %20, %14
  %.pre-phi = phi i64 [ %.phi.trans.insert, %20 ], [ %17, %14 ]
  %23 = phi i32 [ %21, %20 ], [ 1, %14 ]
  %24 = getelementptr inbounds [4 x i32], ptr %2, i64 0, i64 %.pre-phi
  store i32 %23, ptr %24, align 4, !tbaa !25
  %indvars.iv.next = add nuw nsw i64 %indvars.iv, 1
  %exitcond.not = icmp eq i64 %indvars.iv.next, %wide.trip.count
  br i1 %exitcond.not, label %._crit_edge, label %14, !llvm.loop !56

._crit_edge:                                      ; preds = %22, %1
  call void @llvm.lifetime.end.p0(i64 16, ptr nonnull %2) #6
  ret i32 0
}